target datalayout = "e-m:e-p270:32:32-p271:32:32-p272:64:64-i64:64-i128:128-f80:128-n8:16:32:64-S128"
target triple = "x86_64-pc-linux-gnu"

%struct._address_type_t = type { i32, ptr, ptr, ptr, ptr, ptr, ptr, ptr, ptr, ptr }
%struct._address = type { i32, i32, ptr, ptr }

@type_list = internal global [45 x ptr] zeroinitializer, align 16
@.str.29 = private unnamed_addr constant [5 x i8] c"NONE\00", align 1

; Function Attrs: null_pointer_is_valid sspstrong uwtable
define void @address_to_str_buf(ptr noundef %0, ptr noundef %1, i32 noundef %2) #3 {
  %4 = alloca ptr, align 8
  %5 = alloca ptr, align 8
  %6 = alloca i32, align 4
  %7 = alloca ptr, align 8
  %8 = alloca i32, align 4
  store ptr %0, ptr %4, align 8
  store ptr %1, ptr %5, align 8
  store i32 %2, ptr %6, align 4
  call void @llvm.lifetime.start.p0(i64 8, ptr %7) #12
  %9 = load ptr, ptr %5, align 8
  %10 = icmp ne ptr %9, null
  br i1 %10, label %11, label %14

11:                                               ; preds = %3
  %12 = load i32, ptr %6, align 4
  %13 = icmp ne i32 %12, 0
  br i1 %13, label %15, label %14

14:                                               ; preds = %11, %3
  store i32 1, ptr %8, align 4
  br label %43

15:                                               ; preds = %11
  br label %16

16:                                               ; preds = %15
  br label %17

17:                                               ; preds = %16
  br label %18

18:                                               ; preds = %17
  %19 = load ptr, ptr %4, align 8
  %20 = getelementptr inbounds nuw %struct._address, ptr %19, i32 0, i32 0
  %21 = load i32, ptr %20, align 8
  %22 = sext i32 %21 to i64
  %23 = getelementptr [45 x ptr], ptr @type_list, i64 0, i64 %22
  %24 = load ptr, ptr %23, align 8
  store ptr %24, ptr %7, align 8
  %25 = load ptr, ptr %7, align 8
  %26 = icmp eq ptr %25, null
  br i1 %26, label %32, label %27

27:                                               ; preds = %18
  %28 = load ptr, ptr %7, align 8
  %29 = getelementptr inbounds nuw %struct._address_type_t, ptr %28, i32 0, i32 3
  %30 = load ptr, ptr %29, align 8
  %31 = icmp eq ptr %30, null
  br i1 %31, label %32, label %35

32:                                               ; preds = %27, %18
  %33 = load ptr, ptr %5, align 8
  %34 = getelementptr i8, ptr %33, i64 0
  store i8 0, ptr %34, align 1
  store i32 1, ptr %8, align 4
  br label %43

35:                                               ; preds = %27
  %36 = load ptr, ptr %7, align 8
  %37 = getelementptr inbounds nuw %struct._address_type_t, ptr %36, i32 0, i32 3
  %38 = load ptr, ptr %37, align 8
  %39 = load ptr, ptr %4, align 8
  %40 = load ptr, ptr %5, align 8
  %41 = load i32, ptr %6, align 4
  %42 = call i32 %38(ptr noundef %39, ptr noundef %40, i32 noundef %41)
  store i32 0, ptr %8, align 4
  br label %43

43:                                               ; preds = %35, %32, %14
  call void @llvm.lifetime.end.p0(i64 8, ptr %7) #12
  %44 = load i32, ptr %8, align 4
  switch i32 %44, label %46 [
    i32 0, label %45
    i32 1, label %45
  ]

45:                                               ; preds = %43, %43
  ret void

46:                                               ; preds = %43
  unreachable
}

; Function Attrs: null_pointer_is_valid sspstrong uwtable
define ptr @address_to_name(ptr noundef %0) #3 {
  %2 = alloca ptr, align 8
  %3 = alloca ptr, align 8
  %4 = alloca ptr, align 8
  %5 = alloca i32, align 4
  store ptr %0, ptr %3, align 8
  call void @llvm.lifetime.start.p0(i64 8, ptr %4) #12
  br label %6

6:                                                ; preds = %1
  br label %7

7:                                                ; preds = %6
  br label %8

8:                                                ; preds = %7
  %9 = load ptr, ptr %3, align 8
  %10 = getelementptr inbounds nuw %struct._address, ptr %9, i32 0, i32 0
  %11 = load i32, ptr %10, align 8
  %12 = sext i32 %11 to i64
  %13 = getelementptr [45 x ptr], ptr @type_list, i64 0, i64 %12
  %14 = load ptr, ptr %13, align 8
  store ptr %14, ptr %4, align 8
  %15 = load ptr, ptr %4, align 8
  %16 = icmp eq ptr %15, null
  br i1 %16, label %17, label %18

17:                                               ; preds = %8
  store ptr null, ptr %2, align 8
  store i32 1, ptr %5, align 4
  br label %38

18:                                               ; preds = %8
  %19 = load ptr, ptr %3, align 8
  %20 = getelementptr inbounds nuw %struct._address, ptr %19, i32 0, i32 0
  %21 = load i32, ptr %20, align 8
  switch i32 %21, label %26 [
    i32 7, label %22
  ]

22:                                               ; preds = %18
  %23 = load ptr, ptr %3, align 8
  %24 = getelementptr inbounds nuw %struct._address, ptr %23, i32 0, i32 2
  %25 = load ptr, ptr %24, align 8
  store ptr %25, ptr %2, align 8
  store i32 1, ptr %5, align 4
  br label %38

26:                                               ; preds = %18
  %27 = load ptr, ptr %4, align 8
  %28 = getelementptr inbounds nuw %struct._address_type_t, ptr %27, i32 0, i32 8
  %29 = load ptr, ptr %28, align 8
  %30 = icmp ne ptr %29, null
  br i1 %30, label %31, label %37

31:                                               ; preds = %26
  %32 = load ptr, ptr %4, align 8
  %33 = getelementptr inbounds nuw %struct._address_type_t, ptr %32, i32 0, i32 8
  %34 = load ptr, ptr %33, align 8
  %35 = load ptr, ptr %3, align 8
  %36 = call ptr %34(ptr noundef %35)
  store ptr %36, ptr %2, align 8
  store i32 1, ptr %5, align 4
  br label %38

37:                                               ; preds = %26
  store ptr null, ptr %2, align 8
  store i32 1, ptr %5, align 4
  br label %38

38:                                               ; preds = %37, %31, %22, %17
  call void @llvm.lifetime.end.p0(i64 8, ptr %4) #12
  %39 = load ptr, ptr %2, align 8
  ret ptr %39
}

; Function Attrs: null_pointer_is_valid sspstrong uwtable
define ptr @address_to_display(ptr noundef %0, ptr noundef %1) #3 {
  %3 = alloca ptr, align 8
  %4 = alloca ptr, align 8
  %5 = alloca ptr, align 8
  %6 = alloca ptr, align 8
  store ptr %0, ptr %3, align 8
  store ptr %1, ptr %4, align 8
  call void @llvm.lifetime.start.p0(i64 8, ptr %5) #12
  store ptr null, ptr %5, align 8
  call void @llvm.lifetime.start.p0(i64 8, ptr %6) #12
  %7 = load ptr, ptr %4, align 8
  %8 = call ptr @address_to_name(ptr noundef %7)
  store ptr %8, ptr %6, align 8
  %9 = load ptr, ptr %6, align 8
  %10 = icmp ne ptr %9, null
  br i1 %10, label %11, label %15

11:                                               ; preds = %2
  %12 = load ptr, ptr %3, align 8
  %13 = load ptr, ptr %6, align 8
  %14 = call noalias ptr @wmem_strdup(ptr noundef %12, ptr noundef %13)
  store ptr %14, ptr %5, align 8
  br label %29

15:                                               ; preds = %2
  %16 = load ptr, ptr %4, align 8
  %17 = getelementptr inbounds nuw %struct._address, ptr %16, i32 0, i32 0
  %18 = load i32, ptr %17, align 8
  %19 = icmp eq i32 %18, 0
  br i1 %19, label %20, label %23

20:                                               ; preds = %15
  %21 = load ptr, ptr %3, align 8
  %22 = call noalias ptr @wmem_strdup(ptr noundef %21, ptr noundef @.str.29)
  store ptr %22, ptr %5, align 8
  br label %28

23:                                               ; preds = %15
  %24 = load ptr, ptr %3, align 8
  %25 = call noalias ptr @wmem_alloc(ptr noundef %24, i64 noundef 256) #14
  store ptr %25, ptr %5, align 8
  %26 = load ptr, ptr %4, align 8
  %27 = load ptr, ptr %5, align 8
  call void @address_to_str_buf(ptr noundef %26, ptr noundef %27, i32 noundef 256)
  br label %28

28:                                               ; preds = %23, %20
  br label %29

29:                                               ; preds = %28, %11
  %30 = load ptr, ptr %5, align 8
  call void @llvm.lifetime.end.p0(i64 8, ptr %6) #12
  call void @llvm.lifetime.end.p0(i64 8, ptr %5) #12
  ret ptr %30
}