; Function Attrs: null_pointer_is_valid sspstrong uwtable
define ptr @address_to_display(ptr noundef %0, ptr noundef %1) local_unnamed_addr #6 {
  %3 = load i32, ptr %1, align 8
  %4 = sext i32 %3 to i64
  %5 = getelementptr [45 x ptr], ptr @type_list, i64 0, i64 %4
  %6 = load ptr, ptr %5, align 8
  %7 = icmp eq ptr %6, null
  br i1 %7, label %address_to_name.exit.thread, label %8

8:                                                ; preds = %2
  %cond.i = icmp eq i32 %3, 7
  br i1 %cond.i, label %9, label %12

9:                                                ; preds = %8
  %10 = getelementptr inbounds nuw i8, ptr %1, i64 8
  %11 = load ptr, ptr %10, align 8
  br label %address_to_name.exit

12:                                               ; preds = %8
  %13 = getelementptr inbounds nuw i8, ptr %6, i64 64
  %14 = load ptr, ptr %13, align 8
  %.not.i = icmp eq ptr %14, null
  br i1 %.not.i, label %address_to_name.exit.thread, label %15

15:                                               ; preds = %12
  %16 = tail call ptr %14(ptr noundef %1)
  br label %address_to_name.exit

address_to_name.exit:                             ; preds = %9, %15
  %.0.i = phi ptr [ %11, %9 ], [ %16, %15 ]
  %.not = icmp eq ptr %.0.i, null
  br i1 %.not, label %address_to_name.exit.address_to_name.exit.threadthread-pre-split_crit_edge, label %17

address_to_name.exit.address_to_name.exit.threadthread-pre-split_crit_edge: ; preds = %address_to_name.exit
  %.pr.pre = load i32, ptr %1, align 8
  br label %address_to_name.exit.thread

17:                                               ; preds = %address_to_name.exit
  %18 = tail call noalias ptr @wmem_strdup(ptr noundef %0, ptr noundef nonnull %.0.i)
  br label %address_to_str_buf.exit

address_to_name.exit.thread:                      ; preds = %12, %address_to_name.exit.address_to_name.exit.threadthread-pre-split_crit_edge, %2
  %19 = phi i32 [ %3, %2 ], [ %.pr.pre, %address_to_name.exit.address_to_name.exit.threadthread-pre-split_crit_edge ], [ %3, %12 ]
  %20 = icmp eq i32 %19, 0
  br i1 %20, label %21, label %23

21:                                               ; preds = %address_to_name.exit.thread
  %22 = tail call noalias ptr @wmem_strdup(ptr noundef %0, ptr noundef nonnull @.str.29)
  br label %address_to_str_buf.exit

23:                                               ; preds = %address_to_name.exit.thread
  %24 = tail call noalias dereferenceable_or_null(256) ptr @wmem_alloc(ptr noundef %0, i64 noundef 256) #19
  %.not13 = icmp eq ptr %24, null
  br i1 %.not13, label %address_to_str_buf.exit, label %25

25:                                               ; preds = %23
  %26 = load i32, ptr %1, align 8
  %27 = sext i32 %26 to i64
  %28 = getelementptr [45 x ptr], ptr @type_list, i64 0, i64 %27
  %29 = load ptr, ptr %28, align 8
  %30 = icmp eq ptr %29, null
  br i1 %30, label %35, label %31

31:                                               ; preds = %25
  %32 = getelementptr inbounds nuw i8, ptr %29, i64 24
  %33 = load ptr, ptr %32, align 8
  %34 = icmp eq ptr %33, null
  br i1 %34, label %35, label %36

35:                                               ; preds = %31, %25
  store i8 0, ptr %24, align 1
  br label %address_to_str_buf.exit

36:                                               ; preds = %31
  %37 = tail call i32 %33(ptr noundef %1, ptr noundef nonnull %24, i32 noundef 256)
  br label %address_to_str_buf.exit

address_to_str_buf.exit:                          ; preds = %36, %35, %23, %21, %17
  %.0 = phi ptr [ %18, %17 ], [ %22, %21 ], [ null, %23 ], [ %24, %35 ], [ %24, %36 ]
  ret ptr %.0
}